target datalayout = "e-m:e-p270:32:32-p271:32:32-p272:64:64-i64:64-i128:128-f80:128-n8:16:32:64-S128"
target triple = "x86_64-pc-linux-gnu"

%struct.cmdinfo = type { ptr, ptr, ptr, i32, i32, i32, i32, ptr, ptr, ptr, i64 }
%struct.QEnumLookup = type { ptr, ptr, i32 }

@.str.2 = private unnamed_addr constant [13 x i8] c"%s %s -- %s\0A\00", align 1
@truncate_cmd = internal constant %struct.cmdinfo { ptr @.str.136, ptr @.str.137, ptr @truncate_f, i32 1, i32 3, i32 0, i32 0, ptr @.str.138, ptr @.str.139, ptr null, i64 10 }, align 8
@optind = external global i32, align 4
@optarg = external global ptr, align 8
@.str.30 = private unnamed_addr constant [78 x i8] c"Parsing error: non-numeric argument, or extraneous/unrecognized suffix -- %s\0A\00", align 1
@.str.31 = private unnamed_addr constant [41 x i8] c"Parsing error: argument too large -- %s\0A\00", align 1
@.str.32 = private unnamed_addr constant [19 x i8] c"Parsing error: %s\0A\00", align 1
@.str.140 = private unnamed_addr constant [3 x i8] c"m:\00", align 1
@PreallocMode_lookup = external constant %struct.QEnumLookup, align 8
@.str.141 = private unnamed_addr constant [32 x i8] c"Invalid preallocation mode '%s'\00", align 1

; Function Attrs: nounwind sspstrong uwtable
define internal void @print_cvtnum_err(i64 noundef %0, ptr noundef %1) #0 {
  %3 = alloca i64, align 8
  %4 = alloca ptr, align 8
  store i64 %0, ptr %3, align 8
  store ptr %1, ptr %4, align 8
  %5 = load i64, ptr %3, align 8
  switch i64 %5, label %12 [
    i64 -22, label %6
    i64 -34, label %9
  ]

6:                                                ; preds = %2
  %7 = load ptr, ptr %4, align 8
  %8 = call i32 (i32, ptr, ...) @__printf_chk(i32 noundef 1, ptr noundef @.str.30, ptr noundef %7)
  br label %15

9:                                                ; preds = %2
  %10 = load ptr, ptr %4, align 8
  %11 = call i32 (i32, ptr, ...) @__printf_chk(i32 noundef 1, ptr noundef @.str.31, ptr noundef %10)
  br label %15

12:                                               ; preds = %2
  %13 = load ptr, ptr %4, align 8
  %14 = call i32 (i32, ptr, ...) @__printf_chk(i32 noundef 1, ptr noundef @.str.32, ptr noundef %13)
  br label %15

15:                                               ; preds = %12, %9, %6
  ret void
}

; Function Attrs: nounwind sspstrong uwtable
define internal i64 @cvtnum(ptr noundef %0) #0 {
  %2 = alloca i64, align 8
  %3 = alloca ptr, align 8
  %4 = alloca i32, align 4
  %5 = alloca i64, align 8
  %6 = alloca i32, align 4
  store ptr %0, ptr %3, align 8
  call void @llvm.lifetime.start.p0(i64 4, ptr %4) #18
  store i32 0, ptr %4, align 4, !annotation !4
  call void @llvm.lifetime.start.p0(i64 8, ptr %5) #18
  store i64 0, ptr %5, align 8, !annotation !4
  %7 = load ptr, ptr %3, align 8
  %8 = call i32 @qemu_strtosz(ptr noundef %7, ptr noundef null, ptr noundef %5)
  store i32 %8, ptr %4, align 4
  %9 = load i32, ptr %4, align 4
  %10 = icmp slt i32 %9, 0
  br i1 %10, label %11, label %14

11:                                               ; preds = %1
  %12 = load i32, ptr %4, align 4
  %13 = sext i32 %12 to i64
  store i64 %13, ptr %2, align 8
  store i32 1, ptr %6, align 4
  br label %20

14:                                               ; preds = %1
  %15 = load i64, ptr %5, align 8
  %16 = icmp ugt i64 %15, 9223372036854775807
  br i1 %16, label %17, label %18

17:                                               ; preds = %14
  store i64 -34, ptr %2, align 8
  store i32 1, ptr %6, align 4
  br label %20

18:                                               ; preds = %14
  %19 = load i64, ptr %5, align 8
  store i64 %19, ptr %2, align 8
  store i32 1, ptr %6, align 4
  br label %20

20:                                               ; preds = %18, %17, %11
  call void @llvm.lifetime.end.p0(i64 8, ptr %5) #18
  call void @llvm.lifetime.end.p0(i64 4, ptr %4) #18
  %21 = load i64, ptr %2, align 8
  ret i64 %21
}

; Function Attrs: nounwind sspstrong uwtable
define dso_local void @qemuio_command_usage(ptr noundef %0) #0 {
  %2 = alloca ptr, align 8
  store ptr %0, ptr %2, align 8
  %3 = load ptr, ptr %2, align 8
  %4 = getelementptr inbounds nuw %struct.cmdinfo, ptr %3, i32 0, i32 0
  %5 = load ptr, ptr %4, align 8
  %6 = load ptr, ptr %2, align 8
  %7 = getelementptr inbounds nuw %struct.cmdinfo, ptr %6, i32 0, i32 7
  %8 = load ptr, ptr %7, align 8
  %9 = load ptr, ptr %2, align 8
  %10 = getelementptr inbounds nuw %struct.cmdinfo, ptr %9, i32 0, i32 8
  %11 = load ptr, ptr %10, align 8
  %12 = call i32 (i32, ptr, ...) @__printf_chk(i32 noundef 1, ptr noundef @.str.2, ptr noundef %5, ptr noundef %8, ptr noundef %11)
  ret void
}

; Function Attrs: nounwind sspstrong uwtable
define internal i32 @truncate_f(ptr noundef %0, i32 noundef %1, ptr noundef %2) #0 {
  %4 = alloca i32, align 4
  %5 = alloca ptr, align 8
  %6 = alloca i32, align 4
  %7 = alloca ptr, align 8
  %8 = alloca ptr, align 8
  %9 = alloca i64, align 8
  %10 = alloca i32, align 4
  %11 = alloca i32, align 4
  %12 = alloca i32, align 4
  %13 = alloca i32, align 4
  store ptr %0, ptr %5, align 8
  store i32 %1, ptr %6, align 4
  store ptr %2, ptr %7, align 8
  call void @llvm.lifetime.start.p0(i64 8, ptr %8) #18
  store ptr null, ptr %8, align 8
  call void @llvm.lifetime.start.p0(i64 8, ptr %9) #18
  store i64 0, ptr %9, align 8, !annotation !4
  call void @llvm.lifetime.start.p0(i64 4, ptr %10) #18
  store i32 0, ptr %10, align 4, !annotation !4
  call void @llvm.lifetime.start.p0(i64 4, ptr %11) #18
  store i32 0, ptr %11, align 4, !annotation !4
  call void @llvm.lifetime.start.p0(i64 4, ptr %12) #18
  store i32 0, ptr %12, align 4
  br label %14

14:                                               ; preds = %30, %3
  %15 = load i32, ptr %6, align 4
  %16 = load ptr, ptr %7, align 8
  %17 = call i32 @getopt(i32 noundef %15, ptr noundef %16, ptr noundef @.str.140) #18
  store i32 %17, ptr %10, align 4
  %18 = icmp ne i32 %17, -1
  br i1 %18, label %19, label %31

19:                                               ; preds = %14
  %20 = load i32, ptr %10, align 4
  switch i32 %20, label %29 [
    i32 109, label %21
  ]

21:                                               ; preds = %19
  %22 = load ptr, ptr @optarg, align 8
  %23 = call i32 @qapi_enum_parse(ptr noundef @PreallocMode_lookup, ptr noundef %22, i32 noundef 4, ptr noundef null)
  store i32 %23, ptr %12, align 4
  %24 = load i32, ptr %12, align 4
  %25 = icmp eq i32 %24, 4
  br i1 %25, label %26, label %28

26:                                               ; preds = %21
  %27 = load ptr, ptr @optarg, align 8
  call void (ptr, ...) @error_report(ptr noundef @.str.141, ptr noundef %27)
  store i32 -22, ptr %4, align 4
  store i32 1, ptr %13, align 4
  br label %58

28:                                               ; preds = %21
  br label %30

29:                                               ; preds = %19
  call void @qemuio_command_usage(ptr noundef @truncate_cmd)
  store i32 -22, ptr %4, align 4
  store i32 1, ptr %13, align 4
  br label %58

30:                                               ; preds = %28
  br label %14, !llvm.loop !28

31:                                               ; preds = %14
  %32 = load ptr, ptr %7, align 8
  %33 = load i32, ptr @optind, align 4
  %34 = sext i32 %33 to i64
  %35 = getelementptr inbounds ptr, ptr %32, i64 %34
  %36 = load ptr, ptr %35, align 8
  %37 = call i64 @cvtnum(ptr noundef %36)
  store i64 %37, ptr %9, align 8
  %38 = load i64, ptr %9, align 8
  %39 = icmp slt i64 %38, 0
  br i1 %39, label %40, label %47

40:                                               ; preds = %31
  %41 = load i64, ptr %9, align 8
  %42 = load ptr, ptr %7, align 8
  %43 = getelementptr inbounds ptr, ptr %42, i64 1
  %44 = load ptr, ptr %43, align 8
  call void @print_cvtnum_err(i64 noundef %41, ptr noundef %44)
  %45 = load i64, ptr %9, align 8
  %46 = trunc i64 %45 to i32
  store i32 %46, ptr %4, align 4
  store i32 1, ptr %13, align 4
  br label %58

47:                                               ; preds = %31
  %48 = load ptr, ptr %5, align 8
  %49 = load i64, ptr %9, align 8
  %50 = load i32, ptr %12, align 4
  %51 = call i32 @blk_truncate(ptr noundef %48, i64 noundef %49, i1 noundef zeroext false, i32 noundef %50, i32 noundef 0, ptr noundef %8)
  store i32 %51, ptr %11, align 4
  %52 = load i32, ptr %11, align 4
  %53 = icmp slt i32 %52, 0
  br i1 %53, label %54, label %57

54:                                               ; preds = %47
  %55 = load ptr, ptr %8, align 8
  call void @error_report_err(ptr noundef %55)
  %56 = load i32, ptr %11, align 4
  store i32 %56, ptr %4, align 4
  store i32 1, ptr %13, align 4
  br label %58

57:                                               ; preds = %47
  store i32 0, ptr %4, align 4
  store i32 1, ptr %13, align 4
  br label %58

58:                                               ; preds = %57, %54, %40, %29, %26
  call void @llvm.lifetime.end.p0(i64 4, ptr %12) #18
  call void @llvm.lifetime.end.p0(i64 4, ptr %11) #18
  call void @llvm.lifetime.end.p0(i64 4, ptr %10) #18
  call void @llvm.lifetime.end.p0(i64 8, ptr %9) #18
  call void @llvm.lifetime.end.p0(i64 8, ptr %8) #18
  %59 = load i32, ptr %4, align 4
  ret i32 %59
}