; Function Attrs: nounwind sspstrong uwtable
define internal range(i32 -2147483648, 1) i32 @truncate_f(ptr noundef %0, i32 noundef %1, ptr noundef %2) #0 {
  %4 = alloca i64, align 8
  %5 = alloca ptr, align 8
  call void @llvm.lifetime.start.p0(i64 8, ptr nonnull %5) #26
  store ptr null, ptr %5, align 8
  br label %6

6:                                                ; preds = %8, %3
  %.0 = phi i32 [ 0, %3 ], [ %10, %8 ]
  %7 = tail call i32 @getopt(i32 noundef %1, ptr noundef %2, ptr noundef nonnull @.str.140) #26
  switch i32 %7, label %14 [
    i32 -1, label %16
    i32 109, label %8
  ]

8:                                                ; preds = %6
  %9 = load ptr, ptr @optarg, align 8
  %10 = tail call i32 @qapi_enum_parse(ptr noundef nonnull @PreallocMode_lookup, ptr noundef %9, i32 noundef 4, ptr noundef null) #26
  %11 = icmp eq i32 %10, 4
  br i1 %11, label %12, label %6, !llvm.loop !28

12:                                               ; preds = %8
  %13 = load ptr, ptr @optarg, align 8
  tail call void (ptr, ...) @error_report(ptr noundef nonnull @.str.141, ptr noundef %13) #26
  br label %37

14:                                               ; preds = %6
  %15 = tail call i32 (i32, ptr, ...) @__printf_chk(i32 noundef 1, ptr noundef nonnull @.str.2, ptr noundef nonnull @.str.136, ptr noundef nonnull @.str.138, ptr noundef nonnull @.str.139) #26
  br label %37

16:                                               ; preds = %6
  %17 = load i32, ptr @optind, align 4
  %18 = sext i32 %17 to i64
  %19 = getelementptr inbounds ptr, ptr %2, i64 %18
  %20 = load ptr, ptr %19, align 8
  call void @llvm.lifetime.start.p0(i64 8, ptr nonnull %4) #26
  store i64 0, ptr %4, align 8, !annotation !8
  %21 = call i32 @qemu_strtosz(ptr noundef %20, ptr noundef null, ptr noundef nonnull %4) #26
  %22 = icmp slt i32 %21, 0
  %23 = sext i32 %21 to i64
  %24 = load i64, ptr %4, align 8
  %25 = icmp slt i64 %24, 0
  %..i = select i1 %25, i64 -34, i64 %24
  %.0.i = select i1 %22, i64 %23, i64 %..i
  call void @llvm.lifetime.end.p0(i64 8, ptr nonnull %4) #26
  %26 = icmp slt i64 %.0.i, 0
  br i1 %26, label %27, label %32

27:                                               ; preds = %16
  %28 = getelementptr inbounds nuw i8, ptr %2, i64 8
  %29 = load ptr, ptr %28, align 8
  %switch.selectcmp.i = icmp eq i64 %.0.i, -34
  %switch.select.i = select i1 %switch.selectcmp.i, ptr @.str.31, ptr @.str.32
  %switch.selectcmp3.i = icmp eq i64 %.0.i, -22
  %switch.select4.i = select i1 %switch.selectcmp3.i, ptr @.str.30, ptr %switch.select.i
  %30 = call i32 (i32, ptr, ...) @__printf_chk(i32 noundef 1, ptr noundef nonnull %switch.select4.i, ptr noundef %29) #26
  %31 = trunc nsw i64 %.0.i to i32
  br label %37

32:                                               ; preds = %16
  %33 = call i32 @blk_truncate(ptr noundef %0, i64 noundef %.0.i, i1 noundef zeroext false, i32 noundef %.0, i32 noundef 0, ptr noundef nonnull %5) #26
  %34 = icmp slt i32 %33, 0
  br i1 %34, label %35, label %37

35:                                               ; preds = %32
  %36 = load ptr, ptr %5, align 8
  call void @error_report_err(ptr noundef %36) #26
  br label %37

37:                                               ; preds = %32, %35, %27, %14, %12
  %.014 = phi i32 [ -22, %12 ], [ -22, %14 ], [ %31, %27 ], [ %33, %35 ], [ 0, %32 ]
  call void @llvm.lifetime.end.p0(i64 8, ptr nonnull %5) #26
  ret i32 %.014
}